target datalayout = "e-m:e-p270:32:32-p271:32:32-p272:64:64-i64:64-i128:128-f80:128-n8:16:32:64-S128"
target triple = "x86_64-pc-linux-gnu"

%struct.Msat_Solver_t_ = type { i32, i32, ptr, ptr, double, double, ptr, ptr, double, double, ptr, ptr, ptr, i32, i32, ptr, ptr, ptr, ptr, ptr, ptr, i32, double, i32, double, ptr, ptr, ptr, ptr, i32, ptr, ptr, ptr, ptr, %struct.Msat_SolverStats_t_, i32, i32, i32, i32, i32, i32 }
%struct.Msat_SolverStats_t_ = type { i64, i64, i64, i64, i64, i64 }

; Function Attrs: nounwind uwtable
define i32 @Msat_SolverSimplifyDB(ptr noundef %0) #0 {
  %2 = alloca i32, align 4
  %3 = alloca ptr, align 8
  %4 = alloca ptr, align 8
  %5 = alloca ptr, align 8
  %6 = alloca i32, align 4
  %7 = alloca i32, align 4
  %8 = alloca i32, align 4
  %9 = alloca i32, align 4
  %10 = alloca ptr, align 8
  %11 = alloca i32, align 4
  %12 = alloca i32, align 4
  store ptr %0, ptr %3, align 8, !tbaa !3
  call void @llvm.lifetime.start.p0(i64 8, ptr %4) #4
  call void @llvm.lifetime.start.p0(i64 8, ptr %5) #4
  call void @llvm.lifetime.start.p0(i64 4, ptr %6) #4
  call void @llvm.lifetime.start.p0(i64 4, ptr %7) #4
  call void @llvm.lifetime.start.p0(i64 4, ptr %8) #4
  call void @llvm.lifetime.start.p0(i64 4, ptr %9) #4
  call void @llvm.lifetime.start.p0(i64 8, ptr %10) #4
  call void @llvm.lifetime.start.p0(i64 4, ptr %11) #4
  %13 = load ptr, ptr %3, align 8, !tbaa !3
  %14 = call ptr @Msat_SolverPropagate(ptr noundef %13)
  %15 = icmp ne ptr %14, null
  br i1 %15, label %16, label %17

16:                                               ; preds = %1
  store i32 0, ptr %2, align 4
  store i32 1, ptr %12, align 4
  br label %92

17:                                               ; preds = %1
  store i32 0, ptr %11, align 4, !tbaa !8
  %18 = load ptr, ptr %3, align 8, !tbaa !3
  %19 = call ptr @Msat_SolverReadAssignsArray(ptr noundef %18)
  store ptr %19, ptr %10, align 8, !tbaa !47
  store i32 0, ptr %7, align 4, !tbaa !8
  br label %20

20:                                               ; preds = %85, %17
  %21 = load i32, ptr %7, align 4, !tbaa !8
  %22 = icmp slt i32 %21, 2
  br i1 %22, label %23, label %88

23:                                               ; preds = %20
  %24 = load i32, ptr %7, align 4, !tbaa !8
  %25 = icmp ne i32 %24, 0
  br i1 %25, label %26, label %30

26:                                               ; preds = %23
  %27 = load ptr, ptr %3, align 8, !tbaa !3
  %28 = getelementptr inbounds nuw %struct.Msat_Solver_t_, ptr %27, i32 0, i32 3
  %29 = load ptr, ptr %28, align 8, !tbaa !48
  br label %34

30:                                               ; preds = %23
  %31 = load ptr, ptr %3, align 8, !tbaa !3
  %32 = getelementptr inbounds nuw %struct.Msat_Solver_t_, ptr %31, i32 0, i32 2
  %33 = load ptr, ptr %32, align 8, !tbaa !49
  br label %34

34:                                               ; preds = %30, %26
  %35 = phi ptr [ %29, %26 ], [ %33, %30 ]
  store ptr %35, ptr %4, align 8, !tbaa !41
  %36 = load ptr, ptr %4, align 8, !tbaa !41
  %37 = call i32 @Msat_ClauseVecReadSize(ptr noundef %36)
  store i32 %37, ptr %6, align 4, !tbaa !8
  %38 = load ptr, ptr %4, align 8, !tbaa !41
  %39 = call ptr @Msat_ClauseVecReadArray(ptr noundef %38)
  store ptr %39, ptr %5, align 8, !tbaa !42
  store i32 0, ptr %9, align 4, !tbaa !8
  store i32 0, ptr %8, align 4, !tbaa !8
  br label %40

40:                                               ; preds = %79, %34
  %41 = load i32, ptr %8, align 4, !tbaa !8
  %42 = load i32, ptr %6, align 4, !tbaa !8
  %43 = icmp slt i32 %41, %42
  br i1 %43, label %44, label %82

44:                                               ; preds = %40
  %45 = load ptr, ptr %5, align 8, !tbaa !42
  %46 = load i32, ptr %8, align 4, !tbaa !8
  %47 = sext i32 %46 to i64
  %48 = getelementptr inbounds ptr, ptr %45, i64 %47
  %49 = load ptr, ptr %48, align 8, !tbaa !27
  %50 = load ptr, ptr %10, align 8, !tbaa !47
  %51 = call i32 @Msat_ClauseSimplify(ptr noundef %49, ptr noundef %50)
  %52 = icmp ne i32 %51, 0
  br i1 %52, label %53, label %60

53:                                               ; preds = %44
  %54 = load ptr, ptr %3, align 8, !tbaa !3
  %55 = load ptr, ptr %5, align 8, !tbaa !42
  %56 = load i32, ptr %8, align 4, !tbaa !8
  %57 = sext i32 %56 to i64
  %58 = getelementptr inbounds ptr, ptr %55, i64 %57
  %59 = load ptr, ptr %58, align 8, !tbaa !27
  call void @Msat_ClauseFree(ptr noundef %54, ptr noundef %59, i32 noundef 1)
  br label %78

60:                                               ; preds = %44
  %61 = load ptr, ptr %5, align 8, !tbaa !42
  %62 = load i32, ptr %8, align 4, !tbaa !8
  %63 = sext i32 %62 to i64
  %64 = getelementptr inbounds ptr, ptr %61, i64 %63
  %65 = load ptr, ptr %64, align 8, !tbaa !27
  %66 = load ptr, ptr %5, align 8, !tbaa !42
  %67 = load i32, ptr %9, align 4, !tbaa !8
  %68 = add nsw i32 %67, 1
  store i32 %68, ptr %9, align 4, !tbaa !8
  %69 = sext i32 %67 to i64
  %70 = getelementptr inbounds ptr, ptr %66, i64 %69
  store ptr %65, ptr %70, align 8, !tbaa !27
  %71 = load ptr, ptr %5, align 8, !tbaa !42
  %72 = load i32, ptr %8, align 4, !tbaa !8
  %73 = sext i32 %72 to i64
  %74 = getelementptr inbounds ptr, ptr %71, i64 %73
  %75 = load ptr, ptr %74, align 8, !tbaa !27
  %76 = load i32, ptr %11, align 4, !tbaa !8
  %77 = add nsw i32 %76, 1
  store i32 %77, ptr %11, align 4, !tbaa !8
  call void @Msat_ClauseSetNum(ptr noundef %75, i32 noundef %76)
  br label %78

78:                                               ; preds = %60, %53
  br label %79

79:                                               ; preds = %78
  %80 = load i32, ptr %8, align 4, !tbaa !8
  %81 = add nsw i32 %80, 1
  store i32 %81, ptr %8, align 4, !tbaa !8
  br label %40, !llvm.loop !50

82:                                               ; preds = %40
  %83 = load ptr, ptr %4, align 8, !tbaa !41
  %84 = load i32, ptr %9, align 4, !tbaa !8
  call void @Msat_ClauseVecShrink(ptr noundef %83, i32 noundef %84)
  br label %85

85:                                               ; preds = %82
  %86 = load i32, ptr %7, align 4, !tbaa !8
  %87 = add nsw i32 %86, 1
  store i32 %87, ptr %7, align 4, !tbaa !8
  br label %20, !llvm.loop !51

88:                                               ; preds = %20
  %89 = load i32, ptr %11, align 4, !tbaa !8
  %90 = load ptr, ptr %3, align 8, !tbaa !3
  %91 = getelementptr inbounds nuw %struct.Msat_Solver_t_, ptr %90, i32 0, i32 0
  store i32 %89, ptr %91, align 8, !tbaa !52
  store i32 1, ptr %2, align 4
  store i32 1, ptr %12, align 4
  br label %92

92:                                               ; preds = %88, %16
  call void @llvm.lifetime.end.p0(i64 4, ptr %11) #4
  call void @llvm.lifetime.end.p0(i64 8, ptr %10) #4
  call void @llvm.lifetime.end.p0(i64 4, ptr %9) #4
  call void @llvm.lifetime.end.p0(i64 4, ptr %8) #4
  call void @llvm.lifetime.end.p0(i64 4, ptr %7) #4
  call void @llvm.lifetime.end.p0(i64 4, ptr %6) #4
  call void @llvm.lifetime.end.p0(i64 8, ptr %5) #4
  call void @llvm.lifetime.end.p0(i64 8, ptr %4) #4
  %93 = load i32, ptr %2, align 4
  ret i32 %93
}