; Function Attrs: nounwind uwtable
define range(i32 0, 2) i32 @Msat_SolverSimplifyDB(ptr noundef %0) local_unnamed_addr #0 {
  %2 = tail call ptr @Msat_SolverPropagate(ptr noundef %0)
  %.not = icmp eq ptr %2, null
  br i1 %.not, label %3, label %22

3:                                                ; preds = %1
  %4 = tail call ptr @Msat_SolverReadAssignsArray(ptr noundef %0) #7
  br label %5

5:                                                ; preds = %3, %._crit_edge
  %.041 = phi i32 [ 0, %3 ], [ %.1.lcssa, %._crit_edge ]
  %.not34 = phi i1 [ true, %3 ], [ false, %._crit_edge ]
  %.in.v = select i1 %.not34, i64 8, i64 16
  %.in = getelementptr inbounds nuw i8, ptr %0, i64 %.in.v
  %6 = load ptr, ptr %.in, align 8, !tbaa !38
  %7 = tail call i32 @Msat_ClauseVecReadSize(ptr noundef %6) #7
  %8 = tail call ptr @Msat_ClauseVecReadArray(ptr noundef %6) #7
  %9 = icmp sgt i32 %7, 0
  br i1 %9, label %.lr.ph.preheader, label %._crit_edge

.lr.ph.preheader:                                 ; preds = %5
  %wide.trip.count = zext nneg i32 %7 to i64
  br label %.lr.ph

.lr.ph:                                           ; preds = %.lr.ph.preheader, %20
  %indvars.iv = phi i64 [ 0, %.lr.ph.preheader ], [ %indvars.iv.next, %20 ]
  %.138 = phi i32 [ %.041, %.lr.ph.preheader ], [ %.2, %20 ]
  %.03037 = phi i32 [ 0, %.lr.ph.preheader ], [ %.131, %20 ]
  %10 = getelementptr inbounds nuw ptr, ptr %8, i64 %indvars.iv
  %11 = load ptr, ptr %10, align 8, !tbaa !29
  %12 = tail call i32 @Msat_ClauseSimplify(ptr noundef %11, ptr noundef %4) #7
  %.not35 = icmp eq i32 %12, 0
  %13 = load ptr, ptr %10, align 8, !tbaa !29
  br i1 %.not35, label %15, label %14

14:                                               ; preds = %.lr.ph
  tail call void @Msat_ClauseFree(ptr noundef %0, ptr noundef %13, i32 noundef 1) #7
  br label %20

15:                                               ; preds = %.lr.ph
  %16 = add nsw i32 %.03037, 1
  %17 = sext i32 %.03037 to i64
  %18 = getelementptr inbounds ptr, ptr %8, i64 %17
  store ptr %13, ptr %18, align 8, !tbaa !29
  %19 = add nsw i32 %.138, 1
  tail call void @Msat_ClauseSetNum(ptr noundef %13, i32 noundef %.138) #7
  br label %20

20:                                               ; preds = %14, %15
  %.131 = phi i32 [ %.03037, %14 ], [ %16, %15 ]
  %.2 = phi i32 [ %.138, %14 ], [ %19, %15 ]
  %indvars.iv.next = add nuw nsw i64 %indvars.iv, 1
  %exitcond.not = icmp eq i64 %indvars.iv.next, %wide.trip.count
  br i1 %exitcond.not, label %._crit_edge, label %.lr.ph, !llvm.loop !43

._crit_edge:                                      ; preds = %20, %5
  %.030.lcssa = phi i32 [ 0, %5 ], [ %.131, %20 ]
  %.1.lcssa = phi i32 [ %.041, %5 ], [ %.2, %20 ]
  tail call void @Msat_ClauseVecShrink(ptr noundef %6, i32 noundef %.030.lcssa) #7
  br i1 %.not34, label %5, label %21, !llvm.loop !44

21:                                               ; preds = %._crit_edge
  store i32 %.1.lcssa, ptr %0, align 8, !tbaa !45
  br label %22

22:                                               ; preds = %1, %21
  %.029 = phi i32 [ 1, %21 ], [ 0, %1 ]
  ret i32 %.029
}